target datalayout = "e-m:e-p270:32:32-p271:32:32-p272:64:64-i64:64-i128:128-f80:128-n8:16:32:64-S128"
target triple = "x86_64-pc-linux-gnu"

%struct.darktable_t = type { %struct.dt_codepath_t, i32, i32, ptr, ptr, ptr, ptr, ptr, ptr, ptr, ptr, ptr, ptr, ptr, ptr, ptr, ptr, ptr, ptr, ptr, ptr, ptr, ptr, ptr, ptr, ptr, ptr, ptr, ptr, ptr, [64 x %struct.dt_pthread_mutex_t], %struct.dt_pthread_mutex_t, %struct.dt_pthread_mutex_t, %struct.dt_pthread_mutex_t, %struct.dt_pthread_mutex_t, %struct.dt_pthread_mutex_t, ptr, ptr, ptr, ptr, ptr, ptr, ptr, ptr, ptr, ptr, ptr, ptr, ptr, %struct.dt_lua_state_t, ptr, double, ptr, i32, [47 x i32], i32, i32, ptr, ptr, %struct.dt_sys_resources_t, %struct.dt_backthumb_t, %struct.dt_gimp_t }
%struct.dt_codepath_t = type { i8, [3 x i8] }
%struct.dt_pthread_mutex_t = type { %union.pthread_mutex_t }
%union.pthread_mutex_t = type { %struct.__pthread_mutex_s }
%struct.__pthread_mutex_s = type { i32, i32, i32, i32, i32, i16, i16, %struct.__pthread_internal_list }
%struct.__pthread_internal_list = type { ptr, ptr }
%struct.dt_lua_state_t = type { i32 }
%struct.dt_sys_resources_t = type { i64, i64, ptr, ptr, i32 }
%struct.dt_backthumb_t = type { double, double, i32, i32, i32, i32 }
%struct.dt_gimp_t = type { i32, ptr, ptr, i32, i32 }
%struct.dt_camctl_t = type { %struct.dt_pthread_mutex_t, %struct.dt_pthread_mutex_t, i64, ptr, ptr, ptr, ptr, ptr, ptr, ptr, ptr, i32, i32, i32 }

@darktable = external global %struct.darktable_t, align 8
@.str.7 = private unnamed_addr constant [41 x i8] c"[camera_control] creating new context %p\00", align 1
@.str.8 = private unnamed_addr constant [42 x i8] c"[camera_control] loaded %d camera drivers\00", align 1

; Function Attrs: inlinehint nounwind uwtable
define internal i32 @dt_pthread_mutex_init(ptr noundef %0, ptr noundef %1) #4 {
  %3 = alloca ptr, align 8
  %4 = alloca ptr, align 8
  store ptr %0, ptr %3, align 8, !tbaa !91
  store ptr %1, ptr %4, align 8, !tbaa !72
  %5 = load ptr, ptr %3, align 8, !tbaa !91
  %6 = getelementptr inbounds nuw %struct.dt_pthread_mutex_t, ptr %5, i32 0, i32 0
  %7 = load ptr, ptr %4, align 8, !tbaa !72
  %8 = call i32 @pthread_mutex_init(ptr noundef %6, ptr noundef %7) #10
  ret i32 %8
}

; Function Attrs: nounwind uwtable
define ptr @dt_camctl_new() #0 {
  %1 = alloca ptr, align 8
  call void @llvm.lifetime.start.p0(i64 8, ptr %1) #10
  %2 = call noalias ptr @g_malloc0(i64 noundef 168) #11
  store ptr %2, ptr %1, align 8, !tbaa !6
  br label %3

3:                                                ; preds = %0
  %4 = load i32, ptr getelementptr inbounds nuw (%struct.darktable_t, ptr @darktable, i32 0, i32 2), align 8, !tbaa !22
  %5 = and i32 32, %4
  %6 = icmp ne i32 %5, 0
  br i1 %6, label %7, label %14

7:                                                ; preds = %3
  %8 = load i32, ptr getelementptr inbounds nuw (%struct.darktable_t, ptr @darktable, i32 0, i32 2), align 8, !tbaa !22
  %9 = xor i32 %8, -1
  %10 = and i32 0, %9
  %11 = icmp ne i32 %10, 0
  br i1 %11, label %14, label %12

12:                                               ; preds = %7
  %13 = load ptr, ptr %1, align 8, !tbaa !6
  call void (ptr, ...) @dt_print_ext(ptr noundef @.str.7, ptr noundef %13)
  br label %14

14:                                               ; preds = %12, %7, %3
  br label %15

15:                                               ; preds = %14
  br label %16

16:                                               ; preds = %15
  %17 = call ptr @gp_context_new()
  %18 = load ptr, ptr %1, align 8, !tbaa !6
  %19 = getelementptr inbounds nuw %struct.dt_camctl_t, ptr %18, i32 0, i32 6
  store ptr %17, ptr %19, align 8, !tbaa !79
  %20 = load ptr, ptr %1, align 8, !tbaa !6
  %21 = getelementptr inbounds nuw %struct.dt_camctl_t, ptr %20, i32 0, i32 12
  store i32 1, ptr %21, align 4, !tbaa !80
  %22 = load ptr, ptr %1, align 8, !tbaa !6
  %23 = getelementptr inbounds nuw %struct.dt_camctl_t, ptr %22, i32 0, i32 13
  store i32 15, ptr %23, align 8, !tbaa !81
  %24 = load ptr, ptr %1, align 8, !tbaa !6
  %25 = getelementptr inbounds nuw %struct.dt_camctl_t, ptr %24, i32 0, i32 6
  %26 = load ptr, ptr %25, align 8, !tbaa !79
  %27 = load ptr, ptr %1, align 8, !tbaa !6
  call void @gp_context_set_status_func(ptr noundef %26, ptr noundef @_status_func_dispatch25, ptr noundef %27)
  %28 = load ptr, ptr %1, align 8, !tbaa !6
  %29 = getelementptr inbounds nuw %struct.dt_camctl_t, ptr %28, i32 0, i32 6
  %30 = load ptr, ptr %29, align 8, !tbaa !79
  %31 = load ptr, ptr %1, align 8, !tbaa !6
  call void @gp_context_set_error_func(ptr noundef %30, ptr noundef @_error_func_dispatch25, ptr noundef %31)
  %32 = load ptr, ptr %1, align 8, !tbaa !6
  %33 = getelementptr inbounds nuw %struct.dt_camctl_t, ptr %32, i32 0, i32 6
  %34 = load ptr, ptr %33, align 8, !tbaa !79
  %35 = load ptr, ptr %1, align 8, !tbaa !6
  call void @gp_context_set_message_func(ptr noundef %34, ptr noundef @_message_func_dispatch25, ptr noundef %35)
  %36 = load ptr, ptr %1, align 8, !tbaa !6
  %37 = getelementptr inbounds nuw %struct.dt_camctl_t, ptr %36, i32 0, i32 8
  %38 = call i32 @gp_abilities_list_new(ptr noundef %37)
  %39 = load ptr, ptr %1, align 8, !tbaa !6
  %40 = getelementptr inbounds nuw %struct.dt_camctl_t, ptr %39, i32 0, i32 8
  %41 = load ptr, ptr %40, align 8, !tbaa !82
  %42 = load ptr, ptr %1, align 8, !tbaa !6
  %43 = getelementptr inbounds nuw %struct.dt_camctl_t, ptr %42, i32 0, i32 6
  %44 = load ptr, ptr %43, align 8, !tbaa !79
  %45 = call i32 @gp_abilities_list_load(ptr noundef %41, ptr noundef %44)
  br label %46

46:                                               ; preds = %16
  %47 = load i32, ptr getelementptr inbounds nuw (%struct.darktable_t, ptr @darktable, i32 0, i32 2), align 8, !tbaa !22
  %48 = and i32 32, %47
  %49 = icmp ne i32 %48, 0
  br i1 %49, label %50, label %60

50:                                               ; preds = %46
  %51 = load i32, ptr getelementptr inbounds nuw (%struct.darktable_t, ptr @darktable, i32 0, i32 2), align 8, !tbaa !22
  %52 = xor i32 %51, -1
  %53 = and i32 0, %52
  %54 = icmp ne i32 %53, 0
  br i1 %54, label %60, label %55

55:                                               ; preds = %50
  %56 = load ptr, ptr %1, align 8, !tbaa !6
  %57 = getelementptr inbounds nuw %struct.dt_camctl_t, ptr %56, i32 0, i32 8
  %58 = load ptr, ptr %57, align 8, !tbaa !82
  %59 = call i32 @gp_abilities_list_count(ptr noundef %58)
  call void (ptr, ...) @dt_print_ext(ptr noundef @.str.8, i32 noundef %59)
  br label %60

60:                                               ; preds = %55, %50, %46
  br label %61

61:                                               ; preds = %60
  br label %62

62:                                               ; preds = %61
  %63 = load ptr, ptr %1, align 8, !tbaa !6
  %64 = getelementptr inbounds nuw %struct.dt_camctl_t, ptr %63, i32 0, i32 0
  %65 = call i32 @dt_pthread_mutex_init(ptr noundef %64, ptr noundef null)
  %66 = load ptr, ptr %1, align 8, !tbaa !6
  %67 = getelementptr inbounds nuw %struct.dt_camctl_t, ptr %66, i32 0, i32 1
  %68 = call i32 @dt_pthread_mutex_init(ptr noundef %67, ptr noundef null)
  %69 = load ptr, ptr %1, align 8, !tbaa !6
  call void @llvm.lifetime.end.p0(i64 8, ptr %1) #10
  ret ptr %69
}