; Function Attrs: nounwind uwtable
define noundef ptr @dt_camctl_new() local_unnamed_addr #0 {
  %1 = tail call noalias dereferenceable_or_null(168) ptr @g_malloc0(i64 noundef 168) #16
  %2 = load i32, ptr getelementptr inbounds nuw (i8, ptr @darktable, i64 8), align 8, !tbaa !19
  %3 = and i32 %2, 32
  %.not = icmp eq i32 %3, 0
  br i1 %.not, label %5, label %4

4:                                                ; preds = %0
  tail call void (ptr, ...) @dt_print_ext(ptr noundef nonnull @.str.7, ptr noundef %1) #15
  br label %5

5:                                                ; preds = %4, %0
  %6 = tail call ptr @gp_context_new() #15
  %7 = getelementptr inbounds nuw i8, ptr %1, i64 112
  store ptr %6, ptr %7, align 8, !tbaa !73
  %8 = getelementptr inbounds nuw i8, ptr %1, i64 156
  store i32 1, ptr %8, align 4, !tbaa !74
  %9 = getelementptr inbounds nuw i8, ptr %1, i64 160
  store i32 15, ptr %9, align 8, !tbaa !75
  tail call void @gp_context_set_status_func(ptr noundef %6, ptr noundef nonnull @_status_func_dispatch25, ptr noundef %1) #15
  %10 = load ptr, ptr %7, align 8, !tbaa !73
  tail call void @gp_context_set_error_func(ptr noundef %10, ptr noundef nonnull @_error_func_dispatch25, ptr noundef %1) #15
  %11 = load ptr, ptr %7, align 8, !tbaa !73
  tail call void @gp_context_set_message_func(ptr noundef %11, ptr noundef nonnull @_message_func_dispatch25, ptr noundef %1) #15
  %12 = getelementptr inbounds nuw i8, ptr %1, i64 128
  %13 = tail call i32 @gp_abilities_list_new(ptr noundef nonnull %12) #15
  %14 = load ptr, ptr %12, align 8, !tbaa !76
  %15 = load ptr, ptr %7, align 8, !tbaa !73
  %16 = tail call i32 @gp_abilities_list_load(ptr noundef %14, ptr noundef %15) #15
  %17 = load i32, ptr getelementptr inbounds nuw (i8, ptr @darktable, i64 8), align 8, !tbaa !19
  %18 = and i32 %17, 32
  %.not17 = icmp eq i32 %18, 0
  br i1 %.not17, label %22, label %19

19:                                               ; preds = %5
  %20 = load ptr, ptr %12, align 8, !tbaa !76
  %21 = tail call i32 @gp_abilities_list_count(ptr noundef %20) #15
  tail call void (ptr, ...) @dt_print_ext(ptr noundef nonnull @.str.8, i32 noundef %21) #15
  br label %22

22:                                               ; preds = %19, %5
  %23 = tail call i32 @pthread_mutex_init(ptr noundef nonnull %1, ptr noundef null) #15
  %24 = getelementptr inbounds nuw i8, ptr %1, i64 40
  %25 = tail call i32 @pthread_mutex_init(ptr noundef nonnull %24, ptr noundef null) #15
  ret ptr %1
}